; Function Attrs: nounwind uwtable
define dso_local ptr @lpGetObject(ptr noundef %0) local_unnamed_addr #0 {
  %2 = alloca i32, align 4
  %3 = alloca i64, align 8
  call void @llvm.lifetime.start.p0(i64 4, ptr nonnull %2) #18
  call void @llvm.lifetime.start.p0(i64 8, ptr nonnull %3) #18
  %.not = icmp eq ptr %0, null
  br i1 %.not, label %4, label %5, !prof !40

4:                                                ; preds = %1
  tail call void @_serverAssert(ptr noundef nonnull @.str.3, ptr noundef nonnull @.str.1, i32 noundef 803) #18
  tail call void @abort() #19
  unreachable

5:                                                ; preds = %1
  %6 = call ptr @lpGetValue(ptr noundef nonnull %0, ptr noundef nonnull %2, ptr noundef nonnull %3) #18
  %.not7 = icmp eq ptr %6, null
  br i1 %.not7, label %11, label %7

7:                                                ; preds = %5
  %8 = load i32, ptr %2, align 4, !tbaa !78
  %9 = zext i32 %8 to i64
  %10 = call ptr @sdsnewlen(ptr noundef nonnull %6, i64 noundef %9) #18
  br label %14

11:                                               ; preds = %5
  %12 = load i64, ptr %3, align 8, !tbaa !88
  %13 = call ptr @sdsfromlonglong(i64 noundef %12) #18
  br label %14

14:                                               ; preds = %11, %7
  %.0 = phi ptr [ %10, %7 ], [ %13, %11 ]
  call void @llvm.lifetime.end.p0(i64 8, ptr nonnull %3) #18
  call void @llvm.lifetime.end.p0(i64 4, ptr nonnull %2) #18
  ret ptr %.0
}